target datalayout = "e-m:e-p270:32:32-p271:32:32-p272:64:64-i64:64-i128:128-f80:128-n8:16:32:64-S128"
target triple = "x86_64-pc-linux-gnu"

%struct.HASH_SEQ_STATUS = type { ptr, i32, ptr, i8, i32 }
%struct.TSAnyCacheEntry = type { i32, i8 }

@TSConfigCacheHash = internal global ptr null, align 8
@TSCurrentConfigCache = internal global i32 0, align 4

; Function Attrs: inlinehint nounwind uwtable
define internal ptr @DatumGetPointer(i64 noundef %0) #3 {
  %2 = alloca i64, align 8
  store i64 %0, ptr %2, align 8
  %3 = load i64, ptr %2, align 8
  %4 = inttoptr i64 %3 to ptr
  ret ptr %4
}

; Function Attrs: nounwind uwtable
define internal void @InvalidateTSCacheCallBack(i64 noundef %0, i32 noundef %1, i32 noundef %2) #0 {
  %4 = alloca i64, align 8
  %5 = alloca i32, align 4
  %6 = alloca i32, align 4
  %7 = alloca ptr, align 8
  %8 = alloca %struct.HASH_SEQ_STATUS, align 8
  %9 = alloca ptr, align 8
  store i64 %0, ptr %4, align 8
  store i32 %1, ptr %5, align 4
  store i32 %2, ptr %6, align 4
  call void @llvm.lifetime.start.p0(i64 8, ptr %7) #7
  %10 = load i64, ptr %4, align 8
  %11 = call ptr @DatumGetPointer(i64 noundef %10)
  store ptr %11, ptr %7, align 8
  call void @llvm.lifetime.start.p0(i64 32, ptr %8) #7
  call void @llvm.lifetime.start.p0(i64 8, ptr %9) #7
  %12 = load ptr, ptr %7, align 8
  call void @hash_seq_init(ptr noundef %8, ptr noundef %12)
  br label %13

13:                                               ; preds = %16, %3
  %14 = call ptr @hash_seq_search(ptr noundef %8)
  store ptr %14, ptr %9, align 8
  %15 = icmp ne ptr %14, null
  br i1 %15, label %16, label %19

16:                                               ; preds = %13
  %17 = load ptr, ptr %9, align 8
  %18 = getelementptr inbounds nuw %struct.TSAnyCacheEntry, ptr %17, i32 0, i32 1
  store i8 0, ptr %18, align 4
  br label %13, !llvm.loop !8

19:                                               ; preds = %13
  %20 = load ptr, ptr %7, align 8
  %21 = load ptr, ptr @TSConfigCacheHash, align 8
  %22 = icmp eq ptr %20, %21
  br i1 %22, label %23, label %24

23:                                               ; preds = %19
  store i32 0, ptr @TSCurrentConfigCache, align 4
  br label %24

24:                                               ; preds = %23, %19
  call void @llvm.lifetime.end.p0(i64 8, ptr %9) #7
  call void @llvm.lifetime.end.p0(i64 32, ptr %8) #7
  call void @llvm.lifetime.end.p0(i64 8, ptr %7) #7
  ret void
}