; Function Attrs: nounwind uwtable
define internal void @InvalidateTSCacheCallBack(i64 noundef %0, i32 %1, i32 %2) #0 {
  %4 = alloca %struct.HASH_SEQ_STATUS, align 8
  %5 = inttoptr i64 %0 to ptr
  call void @llvm.lifetime.start.p0(i64 32, ptr nonnull %4) #8
  call void @hash_seq_init(ptr noundef nonnull %4, ptr noundef %5) #8
  %6 = call ptr @hash_seq_search(ptr noundef nonnull %4) #8
  %.not3 = icmp eq ptr %6, null
  br i1 %.not3, label %._crit_edge, label %.lr.ph

.lr.ph:                                           ; preds = %3, %.lr.ph
  %7 = phi ptr [ %9, %.lr.ph ], [ %6, %3 ]
  %8 = getelementptr inbounds nuw i8, ptr %7, i64 4
  store i8 0, ptr %8, align 4
  %9 = call ptr @hash_seq_search(ptr noundef nonnull %4) #8
  %.not = icmp eq ptr %9, null
  br i1 %.not, label %._crit_edge, label %.lr.ph, !llvm.loop !6

._crit_edge:                                      ; preds = %.lr.ph, %3
  %10 = load ptr, ptr @TSConfigCacheHash, align 8
  %11 = icmp eq ptr %10, %5
  br i1 %11, label %12, label %13

12:                                               ; preds = %._crit_edge
  store i32 0, ptr @TSCurrentConfigCache, align 4
  br label %13

13:                                               ; preds = %12, %._crit_edge
  call void @llvm.lifetime.end.p0(i64 32, ptr nonnull %4) #8
  ret void
}